(dp1
S'cred_file'
p2
ccopy_reg
_reconstructor
p3
(ctwisted.plugin
CachedDropin
p4
c__builtin__
object
p5
NtRp6
(dp7
S'moduleName'
p8
S'twisted.plugins.cred_file'
p9
sS'description'
p10
S"\nCred plugin for a file of the format 'username:password'.\n"
p11
sS'plugins'
p12
(lp13
g3
(ctwisted.plugin
CachedPlugin
p14
g5
NtRp15
(dp16
S'provided'
p17
(lp18
ctwisted.cred.strcred
ICheckerFactory
p19
actwisted.plugin
IPlugin
p20
asS'dropin'
p21
g6
sS'name'
p22
S'theFileCheckerFactory'
p23
sg10
S'\n    A factory for instances of L{FilePasswordDB}.\n    '
p24
sbasbsS'twisted_telnet'
p25
g3
(g4
g5
NtRp26
(dp27
g8
S'twisted.plugins.twisted_telnet'
p28
sg10
Nsg12
(lp29
g3
(g14
g5
NtRp30
(dp31
g17
(lp32
g20
actwisted.application.service
IServiceMaker
p33
asg21
g26
sg22
S'TwistedTelnet'
p34
sg10
S'\n    Utility class to simplify the definition of L{IServiceMaker} plugins.\n    '
p35
sbasbsS'twisted_socks'
p36
g3
(g4
g5
NtRp37
(dp38
g8
S'twisted.plugins.twisted_socks'
p39
sg10
Nsg12
(lp40
g3
(g14
g5
NtRp41
(dp42
g17
(lp43
g20
ag33
asg21
g37
sg22
S'TwistedSOCKS'
p44
sg10
g35
sbasbsS'twisted_core'
p45
g3
(g4
g5
NtRp46
(dp47
g8
S'twisted.plugins.twisted_core'
p48
sg10
Nsg12
(lp49
g3
(g14
g5
NtRp50
(dp51
g17
(lp52
g20
actwisted.internet.interfaces
IStreamServerEndpointStringParser
p53
asg21
g46
sg22
S'tcp6ServerEndpointParser'
p54
sg10
S'\n    Stream server endpoint string parser for the TCP6ServerEndpoint type.\n\n    @ivar prefix: See L{IStreamClientEndpointStringParser.prefix}.\n    '
p55
sbag3
(g14
g5
NtRp56
(dp57
g17
(lp58
g20
ag53
asg21
g46
sg22
S'stdioEndpointParser'
p59
sg10
S'\n    Stream server endpoint string parser for the Standard I/O type.\n\n    @ivar prefix: See L{IStreamClientEndpointStringParser.prefix}.\n    '
p60
sbag3
(g14
g5
NtRp61
(dp62
g17
(lp63
g20
ag53
asg21
g46
sg22
S'systemdEndpointParser'
p64
sg10
S'\n    Stream server endpoint string parser for the I{systemd} endpoint type.\n\n    @ivar prefix: See L{IStreamClientEndpointStringParser.prefix}.\n\n    @ivar _sddaemon: A L{ListenFDs} instance used to translate an index into an\n        actual file descriptor.\n    '
p65
sbasbsS'cred_sshkeys'
p66
g3
(g4
g5
NtRp67
(dp68
g8
S'twisted.plugins.cred_sshkeys'
p69
sg10
S'\nCred plugin for ssh key login\n'
p70
sg12
(lp71
sbsS'autobahn_endpoints'
p72
g3
(g4
g5
NtRp73
(dp74
g8
S'twisted.plugins.autobahn_endpoints'
p75
sg10
Nsg12
(lp76
g3
(g14
g5
NtRp77
(dp78
g17
(lp79
g53
ag20
asg21
g73
sg22
S'autobahnServerParser'
p80
sg10
Nsbag3
(g14
g5
NtRp81
(dp82
g17
(lp83
ctwisted.internet.interfaces
IStreamClientEndpointStringParser
p84
ag20
asg21
g73
sg22
S'autobahnClientParser'
p85
sg10
NsbasbsS'cred_unix'
p86
g3
(g4
g5
NtRp87
(dp88
g8
S'twisted.plugins.cred_unix'
p89
sg10
S'\nCred plugin for UNIX user accounts.\n'
p90
sg12
(lp91
g3
(g14
g5
NtRp92
(dp93
g17
(lp94
g19
ag20
asg21
g87
sg22
S'theUnixCheckerFactory'
p95
sg10
S'\n    A factory for L{UNIXChecker}.\n    '
p96
sbasbsS'twisted_news'
p97
g3
(g4
g5
NtRp98
(dp99
g8
S'twisted.plugins.twisted_news'
p100
sg10
Nsg12
(lp101
g3
(g14
g5
NtRp102
(dp103
g17
(lp104
g20
ag33
asg21
g98
sg22
S'TwistedNews'
p105
sg10
g35
sbasbsS'twisted_qtstub'
p106
g3
(g4
g5
NtRp107
(dp108
g8
S'twisted.plugins.twisted_qtstub'
p109
sg10
S'\nBackwards-compatibility plugin for the Qt reactor.\n\nThis provides a Qt reactor plugin named C{qt} which emits a deprecation\nwarning and a pointer to the separately distributed Qt reactor plugins.\n'
p110
sg12
(lp111
g3
(g14
g5
NtRp112
(dp113
g17
(lp114
g20
actwisted.application.reactors
IReactorInstaller
p115
asg21
g107
sg22
S'qt'
p116
sg10
S'\n    Reactor plugin which emits a deprecation warning on the successful\n    installation of its reactor or a pointer to further information if an\n    ImportError occurs while attempting to install it.\n    '
p117
sbasbsS'twisted_words'
p118
g3
(g4
g5
NtRp119
(dp120
g8
S'twisted.plugins.twisted_words'
p121
sg10
Nsg12
(lp122
g3
(g14
g5
NtRp123
(dp124
g17
(lp125
g20
ag33
asg21
g119
sg22
S'TwistedXMPPRouter'
p126
sg10
g35
sbag3
(g14
g5
NtRp127
(dp128
g17
(lp129
g20
actwisted.words.iwords
IProtocolPlugin
p130
asg21
g119
sg22
S'RelayChatInterface'
p131
sg10
Nsbag3
(g14
g5
NtRp132
(dp133
g17
(lp134
g20
ag33
asg21
g119
sg22
S'NewTwistedWords'
p135
sg10
g35
sbag3
(g14
g5
NtRp136
(dp137
g17
(lp138
g20
ag130
asg21
g119
sg22
S'PBChatInterface'
p139
sg10
NsbasbsS'twisted_names'
p140
g3
(g4
g5
NtRp141
(dp142
g8
S'twisted.plugins.twisted_names'
p143
sg10
Nsg12
(lp144
g3
(g14
g5
NtRp145
(dp146
g17
(lp147
g20
ag33
asg21
g141
sg22
S'TwistedNames'
p148
sg10
g35
sbasbsS'twisted_conch'
p149
g3
(g4
g5
NtRp150
(dp151
g8
S'twisted.plugins.twisted_conch'
p152
sg10
Nsg12
(lp153
g3
(g14
g5
NtRp154
(dp155
g17
(lp156
g20
ag33
asg21
g150
sg22
S'TwistedManhole'
p157
sg10
g35
sbag3
(g14
g5
NtRp158
(dp159
g17
(lp160
g20
ag33
asg21
g150
sg22
S'TwistedSSH'
p161
sg10
g35
sbasbsS'cred_memory'
p162
g3
(g4
g5
NtRp163
(dp164
g8
S'twisted.plugins.cred_memory'
p165
sg10
S'\nCred plugin for an in-memory user database.\n'
p166
sg12
(lp167
g3
(g14
g5
NtRp168
(dp169
g17
(lp170
g19
ag20
asg21
g163
sg22
S'theInMemoryCheckerFactory'
p171
sg10
S"\n    A factory for in-memory credentials checkers.\n\n    This is only of use in one-off test programs or examples which don't\n    want to focus too much on how credentials are verified.\n\n    You really don't want to use this for anything else.  It is, at best, a\n    toy.  If you need a simple credentials checker for a real application,\n    see L{cred_passwd.PasswdCheckerFactory}.\n    "
p172
sbasbsS'twisted_ftp'
p173
g3
(g4
g5
NtRp174
(dp175
g8
S'twisted.plugins.twisted_ftp'
p176
sg10
Nsg12
(lp177
g3
(g14
g5
NtRp178
(dp179
g17
(lp180
g20
ag33
asg21
g174
sg22
S'TwistedFTP'
p181
sg10
g35
sbasbsS'twisted_manhole'
p182
g3
(g4
g5
NtRp183
(dp184
g8
S'twisted.plugins.twisted_manhole'
p185
sg10
Nsg12
(lp186
g3
(g14
g5
NtRp187
(dp188
g17
(lp189
g20
ag33
asg21
g183
sg22
g157
sg10
g35
sbasbsS'cred_anonymous'
p190
g3
(g4
g5
NtRp191
(dp192
g8
S'twisted.plugins.cred_anonymous'
p193
sg10
S'\nCred plugin for anonymous logins.\n'
p194
sg12
(lp195
g3
(g14
g5
NtRp196
(dp197
g17
(lp198
g19
ag20
asg21
g191
sg22
S'theAnonymousCheckerFactory'
p199
sg10
S'\n    Generates checkers that will authenticate an anonymous request.\n    '
p200
sbasbsS'twisted_portforward'
p201
g3
(g4
g5
NtRp202
(dp203
g8
S'twisted.plugins.twisted_portforward'
p204
sg10
Nsg12
(lp205
g3
(g14
g5
NtRp206
(dp207
g17
(lp208
g20
ag33
asg21
g202
sg22
S'TwistedPortForward'
p209
sg10
g35
sbasbsS'autobahn_twistd'
p210
g3
(g4
g5
NtRp211
(dp212
g8
S'twisted.plugins.autobahn_twistd'
p213
sg10
Nsg12
(lp214
g3
(g14
g5
NtRp215
(dp216
g17
(lp217
g20
ag33
asg21
g211
sg22
S'serviceMaker'
p218
sg10
g35
sbasbsS'twisted_reactors'
p219
g3
(g4
g5
NtRp220
(dp221
g8
S'twisted.plugins.twisted_reactors'
p222
sg10
Nsg12
(lp223
g3
(g14
g5
NtRp224
(dp225
g17
(lp226
g20
ag115
asg21
g220
sg22
S'glade'
p227
sg10
S'\n    @ivar moduleName: The fully-qualified Python name of the module of which\n    the install callable is an attribute.\n    '
p228
sbag3
(g14
g5
NtRp229
(dp230
g17
(lp231
g20
ag115
asg21
g220
sg22
S'win32er'
p232
sg10
g228
sbag3
(g14
g5
NtRp233
(dp234
g17
(lp235
g20
ag115
asg21
g220
sg22
S'glib2'
p236
sg10
g228
sbag3
(g14
g5
NtRp237
(dp238
g17
(lp239
g20
ag115
asg21
g220
sg22
S'kqueue'
p240
sg10
g228
sbag3
(g14
g5
NtRp241
(dp242
g17
(lp243
g20
ag115
asg21
g220
sg22
S'epoll'
p244
sg10
g228
sbag3
(g14
g5
NtRp245
(dp246
g17
(lp247
g20
ag115
asg21
g220
sg22
S'iocp'
p248
sg10
g228
sbag3
(g14
g5
NtRp249
(dp250
g17
(lp251
g20
ag115
asg21
g220
sg22
S'gtk'
p252
sg10
g228
sbag3
(g14
g5
NtRp253
(dp254
g17
(lp255
g20
ag115
asg21
g220
sg22
S'cf'
p256
sg10
g228
sbag3
(g14
g5
NtRp257
(dp258
g17
(lp259
g20
ag115
asg21
g220
sg22
S'gtk2'
p260
sg10
g228
sbag3
(g14
g5
NtRp261
(dp262
g17
(lp263
g20
ag115
asg21
g220
sg22
S'default'
p264
sg10
g228
sbag3
(g14
g5
NtRp265
(dp266
g17
(lp267
g20
ag115
asg21
g220
sg22
S'gi'
p268
sg10
g228
sbag3
(g14
g5
NtRp269
(dp270
g17
(lp271
g20
ag115
asg21
g220
sg22
S'poll'
p272
sg10
g228
sbag3
(g14
g5
NtRp273
(dp274
g17
(lp275
g20
ag115
asg21
g220
sg22
S'gtk3'
p276
sg10
g228
sbag3
(g14
g5
NtRp277
(dp278
g17
(lp279
g20
ag115
asg21
g220
sg22
S'select'
p280
sg10
g228
sbag3
(g14
g5
NtRp281
(dp282
g17
(lp283
g20
ag115
asg21
g220
sg22
S'wx'
p284
sg10
g228
sbasbsS'twisted_web'
p285
g3
(g4
g5
NtRp286
(dp287
g8
S'twisted.plugins.twisted_web'
p288
sg10
Nsg12
(lp289
g3
(g14
g5
NtRp290
(dp291
g17
(lp292
g20
ag33
asg21
g286
sg22
S'TwistedWeb'
p293
sg10
g35
sbasbsS'twisted_inet'
p294
g3
(g4
g5
NtRp295
(dp296
g8
S'twisted.plugins.twisted_inet'
p297
sg10
Nsg12
(lp298
g3
(g14
g5
NtRp299
(dp300
g17
(lp301
g20
ag33
asg21
g295
sg22
S'TwistedINETD'
p302
sg10
g35
sbasbsS'twisted_trial'
p303
g3
(g4
g5
NtRp304
(dp305
g8
S'twisted.plugins.twisted_trial'
p306
sg10
Nsg12
(lp307
g3
(g14
g5
NtRp308
(dp309
g17
(lp310
g20
actwisted.trial.itrial
IReporter
p311
asg21
g304
sg22
S'Subunit'
p312
sg10
Nsbag3
(g14
g5
NtRp313
(dp314
g17
(lp315
g20
ag311
asg21
g304
sg22
S'BlackAndWhite'
p316
sg10
Nsbag3
(g14
g5
NtRp317
(dp318
g17
(lp319
g20
ag311
asg21
g304
sg22
S'Classic'
p320
sg10
Nsbag3
(g14
g5
NtRp321
(dp322
g17
(lp323
g20
ag311
asg21
g304
sg22
S'Tree'
p324
sg10
Nsbag3
(g14
g5
NtRp325
(dp326
g17
(lp327
g20
ag311
asg21
g304
sg22
S'Timing'
p328
sg10
Nsbag3
(g14
g5
NtRp329
(dp330
g17
(lp331
g20
ag311
asg21
g304
sg22
S'Minimal'
p332
sg10
NsbasbsS'twisted_lore'
p333
g3
(g4
g5
NtRp334
(dp335
g8
S'twisted.plugins.twisted_lore'
p336
sg10
Nsg12
(lp337
g3
(g14
g5
NtRp338
(dp339
g17
(lp340
g20
actwisted.lore.scripts.lore
IProcessor
p341
asg21
g334
sg22
S'SlideProcessor'
p342
sg10
Nsbag3
(g14
g5
NtRp343
(dp344
g17
(lp345
g20
ag341
asg21
g334
sg22
S'DefaultProcessor'
p346
sg10
Nsbag3
(g14
g5
NtRp347
(dp348
g17
(lp349
g20
ag341
asg21
g334
sg22
S'MathProcessor'
p350
sg10
Nsbag3
(g14
g5
NtRp351
(dp352
g17
(lp353
g20
ag341
asg21
g334
sg22
S'NevowProcessor'
p354
sg10
Nsbag3
(g14
g5
NtRp355
(dp356
g17
(lp357
g20
ag341
asg21
g334
sg22
S'ManProcessor'
p358
sg10
NsbasbsS'twisted_mail'
p359
g3
(g4
g5
NtRp360
(dp361
g8
S'twisted.plugins.twisted_mail'
p362
sg10
Nsg12
(lp363
g3
(g14
g5
NtRp364
(dp365
g17
(lp366
g20
ag33
asg21
g360
sg22
S'TwistedMail'
p367
sg10
g35
sbasbsS'twisted_runner'
p368
g3
(g4
g5
NtRp369
(dp370
g8
S'twisted.plugins.twisted_runner'
p371
sg10
Nsg12
(lp372
g3
(g14
g5
NtRp373
(dp374
g17
(lp375
g20
ag33
asg21
g369
sg22
S'TwistedProcmon'
p376
sg10
g35
sbasbs.